target datalayout = "e-m:e-p270:32:32-p271:32:32-p272:64:64-i64:64-i128:128-f80:128-n8:16:32:64-S128"
target triple = "x86_64-pc-linux-gnu"

%struct.AVRational = type { i32, i32 }
%struct.Encoder = type { ptr, ptr, i64, i64 }
%struct.AVCodecContext = type { ptr, i32, i32, ptr, i32, i32, ptr, ptr, ptr, i64, i32, i32, ptr, i32, %struct.AVRational, %struct.AVRational, %struct.AVRational, i32, i32, i32, i32, i32, %struct.AVRational, i32, i32, i32, i32, i32, i32, i32, i32, i32, i32, i32, ptr, ptr, i32, float, float, float, float, float, float, float, float, float, i32, i32, i32, i32, i32, i32, i32, i32, i32, i32, i32, i32, ptr, ptr, ptr, i32, i32, i32, i32, i32, i32, i32, i32, i32, i32, %struct.AVChannelLayout, i32, i32, i32, i32, i32, i32, i32, i32, ptr, i32, i32, i32, float, float, i32, i32, i32, i32, i32, ptr, i64, i64, float, float, i32, i32, ptr, ptr, i32, i32, i32, i32, i32, ptr, ptr, ptr, ptr, i32, i32, [8 x i64], i32, i32, i32, i32, i32, i32, i32, ptr, ptr, i32, i32, i32, i32, i32, i32, i32, i32, i32, i32, ptr, ptr, i32, i32, ptr, ptr, ptr, ptr, i32, i32, i64, i32, i32, i64, ptr, i64, ptr, i32, ptr, i32 }
%struct.AVChannelLayout = type { i32, i32, %union.anon, ptr }
%union.anon = type { i64 }
%struct.EncoderPriv = type { %struct.Encoder, ptr, [32 x i8], i64, i64, i32, i32, ptr, i32 }
%struct.AVCodec = type { ptr, ptr, i32, i32, i32, i8, ptr, ptr, ptr, ptr, ptr, ptr, ptr, ptr }
%struct.OutputStream = type { ptr, i32, ptr, i32, ptr, ptr, ptr, i32, i32, i32, %struct.AVRational, %struct.KeyframeForceCtx, ptr, ptr, ptr, ptr, ptr, i64, i32, %struct.EncStats, %struct.EncStats, i32 }
%struct.KeyframeForceCtx = type { i32, i64, ptr, i32, i32, ptr, [5 x double], i32 }
%struct.EncStats = type { ptr, i32, ptr, %union.pthread_mutex_t, i32 }
%union.pthread_mutex_t = type { %struct.__pthread_mutex_s }
%struct.__pthread_mutex_s = type { i32, i32, i32, i32, i32, i16, i16, %struct.__pthread_internal_list }
%struct.__pthread_internal_list = type { ptr, ptr }
%struct.OutputFile = type { ptr, i32, ptr, ptr, i32, i64, i64, i32 }
%struct.EncoderThread = type { ptr, ptr }

@.str.19 = private unnamed_addr constant [29 x i8] c"Encoder thread received EOF\0A\00", align 1
@.str.20 = private unnamed_addr constant [35 x i8] c"Could not open encoder before EOF\0A\00", align 1
@.str.21 = private unnamed_addr constant [42 x i8] c"Error receiving a frame for encoding: %s\0A\00", align 1
@.str.22 = private unnamed_addr constant [33 x i8] c"Encoder returned EOF, finishing\0A\00", align 1
@.str.23 = private unnamed_addr constant [28 x i8] c"Error encoding a frame: %s\0A\00", align 1
@.str.24 = private unnamed_addr constant [28 x i8] c"Error flushing encoder: %s\0A\00", align 1
@.str.29 = private unnamed_addr constant [12 x i8] c"enc%d:%d:%s\00", align 1

; Function Attrs: inlinehint nounwind uwtable
define internal i32 @ff_thread_setname(ptr noundef %0) #7 {
  %2 = alloca ptr, align 8
  %3 = alloca i32, align 4
  store ptr %0, ptr %2, align 8, !tbaa !178
  call void @llvm.lifetime.start.p0(i64 4, ptr %3) #11
  store i32 0, ptr %3, align 4, !tbaa !21
  %4 = load ptr, ptr %2, align 8, !tbaa !178
  %5 = call i32 (i32, ...) @prctl(i32 noundef 15, ptr noundef %4) #11
  %6 = sub nsw i32 0, %5
  store i32 %6, ptr %3, align 4, !tbaa !21
  %7 = load i32, ptr %3, align 4, !tbaa !21
  call void @llvm.lifetime.end.p0(i64 4, ptr %3) #11
  ret i32 %7
}

; Function Attrs: nounwind uwtable
define internal void @enc_thread_uninit(ptr noundef %0) #0 {
  %2 = alloca ptr, align 8
  store ptr %0, ptr %2, align 8, !tbaa !217
  %3 = load ptr, ptr %2, align 8, !tbaa !217
  %4 = getelementptr inbounds nuw %struct.EncoderThread, ptr %3, i32 0, i32 1
  call void @av_packet_free(ptr noundef %4)
  %5 = load ptr, ptr %2, align 8, !tbaa !217
  %6 = getelementptr inbounds nuw %struct.EncoderThread, ptr %5, i32 0, i32 0
  call void @av_frame_free(ptr noundef %6)
  %7 = load ptr, ptr %2, align 8, !tbaa !217
  call void @llvm.memset.p0.i64(ptr align 8 %7, i8 0, i64 16, i1 false)
  ret void
}

; Function Attrs: nounwind uwtable
define internal void @enc_thread_set_name(ptr noundef %0) #0 {
  %2 = alloca ptr, align 8
  %3 = alloca [16 x i8], align 16
  store ptr %0, ptr %2, align 8, !tbaa !41
  call void @llvm.lifetime.start.p0(i64 16, ptr %3) #11
  %4 = getelementptr inbounds [16 x i8], ptr %3, i64 0, i64 0
  %5 = load ptr, ptr %2, align 8, !tbaa !41
  %6 = getelementptr inbounds nuw %struct.OutputStream, ptr %5, i32 0, i32 2
  %7 = load ptr, ptr %6, align 8, !tbaa !75
  %8 = getelementptr inbounds nuw %struct.OutputFile, ptr %7, i32 0, i32 1
  %9 = load i32, ptr %8, align 8, !tbaa !198
  %10 = load ptr, ptr %2, align 8, !tbaa !41
  %11 = getelementptr inbounds nuw %struct.OutputStream, ptr %10, i32 0, i32 3
  %12 = load i32, ptr %11, align 8, !tbaa !201
  %13 = load ptr, ptr %2, align 8, !tbaa !41
  %14 = getelementptr inbounds nuw %struct.OutputStream, ptr %13, i32 0, i32 6
  %15 = load ptr, ptr %14, align 8, !tbaa !59
  %16 = getelementptr inbounds nuw %struct.Encoder, ptr %15, i32 0, i32 1
  %17 = load ptr, ptr %16, align 8, !tbaa !12
  %18 = getelementptr inbounds nuw %struct.AVCodecContext, ptr %17, i32 0, i32 3
  %19 = load ptr, ptr %18, align 8, !tbaa !63
  %20 = getelementptr inbounds nuw %struct.AVCodec, ptr %19, i32 0, i32 0
  %21 = load ptr, ptr %20, align 8, !tbaa !31
  %22 = call i32 (ptr, i64, ptr, ...) @snprintf(ptr noundef %4, i64 noundef 16, ptr noundef @.str.29, i32 noundef %9, i32 noundef %12, ptr noundef %21) #11
  %23 = getelementptr inbounds [16 x i8], ptr %3, i64 0, i64 0
  %24 = call i32 @ff_thread_setname(ptr noundef %23)
  call void @llvm.lifetime.end.p0(i64 16, ptr %3) #11
  ret void
}

; Function Attrs: inlinehint nounwind uwtable
define internal ptr @av_make_error_string(ptr noundef %0, i64 noundef %1, i32 noundef %2) #7 {
  %4 = alloca ptr, align 8
  %5 = alloca i64, align 8
  %6 = alloca i32, align 4
  store ptr %0, ptr %4, align 8, !tbaa !178
  store i64 %1, ptr %5, align 8, !tbaa !179
  store i32 %2, ptr %6, align 4, !tbaa !21
  %7 = load i32, ptr %6, align 4, !tbaa !21
  %8 = load ptr, ptr %4, align 8, !tbaa !178
  %9 = load i64, ptr %5, align 8, !tbaa !179
  %10 = call i32 @av_strerror(i32 noundef %7, ptr noundef %8, i64 noundef %9)
  %11 = load ptr, ptr %4, align 8, !tbaa !178
  ret ptr %11
}

; Function Attrs: nounwind uwtable
define internal i32 @enc_thread_init(ptr noundef %0) #0 {
  %2 = alloca i32, align 4
  %3 = alloca ptr, align 8
  store ptr %0, ptr %3, align 8, !tbaa !217
  %4 = load ptr, ptr %3, align 8, !tbaa !217
  call void @llvm.memset.p0.i64(ptr align 8 %4, i8 0, i64 16, i1 false)
  %5 = call ptr @av_frame_alloc()
  %6 = load ptr, ptr %3, align 8, !tbaa !217
  %7 = getelementptr inbounds nuw %struct.EncoderThread, ptr %6, i32 0, i32 0
  store ptr %5, ptr %7, align 8, !tbaa !213
  %8 = load ptr, ptr %3, align 8, !tbaa !217
  %9 = getelementptr inbounds nuw %struct.EncoderThread, ptr %8, i32 0, i32 0
  %10 = load ptr, ptr %9, align 8, !tbaa !213
  %11 = icmp ne ptr %10, null
  br i1 %11, label %13, label %12

12:                                               ; preds = %1
  br label %23

13:                                               ; preds = %1
  %14 = call ptr @av_packet_alloc()
  %15 = load ptr, ptr %3, align 8, !tbaa !217
  %16 = getelementptr inbounds nuw %struct.EncoderThread, ptr %15, i32 0, i32 1
  store ptr %14, ptr %16, align 8, !tbaa !215
  %17 = load ptr, ptr %3, align 8, !tbaa !217
  %18 = getelementptr inbounds nuw %struct.EncoderThread, ptr %17, i32 0, i32 1
  %19 = load ptr, ptr %18, align 8, !tbaa !215
  %20 = icmp ne ptr %19, null
  br i1 %20, label %22, label %21

21:                                               ; preds = %13
  br label %23

22:                                               ; preds = %13
  store i32 0, ptr %2, align 4
  br label %25

23:                                               ; preds = %21, %12
  %24 = load ptr, ptr %3, align 8, !tbaa !217
  call void @enc_thread_uninit(ptr noundef %24)
  store i32 -12, ptr %2, align 4
  br label %25

25:                                               ; preds = %23, %22
  %26 = load i32, ptr %2, align 4
  ret i32 %26
}

; Function Attrs: nounwind uwtable
define internal ptr @ep_from_enc(ptr noundef %0) #0 {
  %2 = alloca ptr, align 8
  store ptr %0, ptr %2, align 8, !tbaa !10
  %3 = load ptr, ptr %2, align 8, !tbaa !10
  ret ptr %3
}

; Function Attrs: nounwind uwtable
define i32 @encoder_thread(ptr noundef %0) #0 {
  %2 = alloca ptr, align 8
  %3 = alloca ptr, align 8
  %4 = alloca ptr, align 8
  %5 = alloca ptr, align 8
  %6 = alloca %struct.EncoderThread, align 8
  %7 = alloca i32, align 4
  %8 = alloca i32, align 4
  %9 = alloca i32, align 4
  %10 = alloca [64 x i8], align 1
  %11 = alloca [64 x i8], align 1
  %12 = alloca [64 x i8], align 1
  store ptr %0, ptr %2, align 8, !tbaa !23
  call void @llvm.lifetime.start.p0(i64 8, ptr %3) #11
  %13 = load ptr, ptr %2, align 8, !tbaa !23
  store ptr %13, ptr %3, align 8, !tbaa !41
  call void @llvm.lifetime.start.p0(i64 8, ptr %4) #11
  %14 = load ptr, ptr %3, align 8, !tbaa !41
  %15 = getelementptr inbounds nuw %struct.OutputStream, ptr %14, i32 0, i32 6
  %16 = load ptr, ptr %15, align 8, !tbaa !59
  store ptr %16, ptr %4, align 8, !tbaa !10
  call void @llvm.lifetime.start.p0(i64 8, ptr %5) #11
  %17 = load ptr, ptr %4, align 8, !tbaa !10
  %18 = call ptr @ep_from_enc(ptr noundef %17)
  store ptr %18, ptr %5, align 8, !tbaa !24
  call void @llvm.lifetime.start.p0(i64 16, ptr %6) #11
  call void @llvm.lifetime.start.p0(i64 4, ptr %7) #11
  store i32 0, ptr %7, align 4, !tbaa !21
  call void @llvm.lifetime.start.p0(i64 4, ptr %8) #11
  store i32 0, ptr %8, align 4, !tbaa !21
  call void @llvm.lifetime.start.p0(i64 4, ptr %9) #11
  store i32 0, ptr %9, align 4, !tbaa !21
  %19 = call i32 @enc_thread_init(ptr noundef %6)
  store i32 %19, ptr %7, align 4, !tbaa !21
  %20 = load i32, ptr %7, align 4, !tbaa !21
  %21 = icmp slt i32 %20, 0
  br i1 %21, label %22, label %23

22:                                               ; preds = %1
  br label %133

23:                                               ; preds = %1
  %24 = load ptr, ptr %3, align 8, !tbaa !41
  %25 = getelementptr inbounds nuw %struct.OutputStream, ptr %24, i32 0, i32 1
  %26 = load i32, ptr %25, align 8, !tbaa !106
  %27 = icmp ne i32 %26, 0
  br i1 %27, label %28, label %40

28:                                               ; preds = %23
  %29 = load ptr, ptr %3, align 8, !tbaa !41
  %30 = getelementptr inbounds nuw %struct.OutputStream, ptr %29, i32 0, i32 1
  %31 = load i32, ptr %30, align 8, !tbaa !106
  %32 = icmp ne i32 %31, 1
  br i1 %32, label %33, label %40

33:                                               ; preds = %28
  %34 = load ptr, ptr %3, align 8, !tbaa !41
  %35 = call i32 @enc_open(ptr noundef %34, ptr noundef null)
  store i32 %35, ptr %7, align 4, !tbaa !21
  %36 = load i32, ptr %7, align 4, !tbaa !21
  %37 = icmp slt i32 %36, 0
  br i1 %37, label %38, label %39

38:                                               ; preds = %33
  br label %133

39:                                               ; preds = %33
  br label %40

40:                                               ; preds = %39, %28, %23
  br label %41

41:                                               ; preds = %105, %40
  %42 = load i32, ptr %8, align 4, !tbaa !21
  %43 = icmp ne i32 %42, 0
  %44 = xor i1 %43, true
  br i1 %44, label %45, label %106

45:                                               ; preds = %41
  %46 = load ptr, ptr %5, align 8, !tbaa !24
  %47 = getelementptr inbounds nuw %struct.EncoderPriv, ptr %46, i32 0, i32 7
  %48 = load ptr, ptr %47, align 8, !tbaa !29
  %49 = load ptr, ptr %5, align 8, !tbaa !24
  %50 = getelementptr inbounds nuw %struct.EncoderPriv, ptr %49, i32 0, i32 8
  %51 = load i32, ptr %50, align 8, !tbaa !30
  %52 = getelementptr inbounds nuw %struct.EncoderThread, ptr %6, i32 0, i32 0
  %53 = load ptr, ptr %52, align 8, !tbaa !213
  %54 = call i32 @sch_enc_receive(ptr noundef %48, i32 noundef %51, ptr noundef %53)
  store i32 %54, ptr %8, align 4, !tbaa !21
  %55 = load i32, ptr %8, align 4, !tbaa !21
  %56 = icmp slt i32 %55, 0
  br i1 %56, label %57, label %76

57:                                               ; preds = %45
  %58 = load i32, ptr %8, align 4, !tbaa !21
  %59 = icmp eq i32 %58, -541478725
  br i1 %59, label %60, label %69

60:                                               ; preds = %57
  %61 = load ptr, ptr %4, align 8, !tbaa !10
  call void (ptr, i32, ptr, ...) @av_log(ptr noundef %61, i32 noundef 40, ptr noundef @.str.19)
  %62 = load ptr, ptr %5, align 8, !tbaa !24
  %63 = getelementptr inbounds nuw %struct.EncoderPriv, ptr %62, i32 0, i32 5
  %64 = load i32, ptr %63, align 8, !tbaa !77
  %65 = icmp ne i32 %64, 0
  br i1 %65, label %66, label %67

66:                                               ; preds = %60
  br label %106

67:                                               ; preds = %60
  %68 = load ptr, ptr %4, align 8, !tbaa !10
  call void (ptr, i32, ptr, ...) @av_log(ptr noundef %68, i32 noundef 16, ptr noundef @.str.20)
  store i32 -22, ptr %7, align 4, !tbaa !21
  br label %75

69:                                               ; preds = %57
  %70 = load ptr, ptr %4, align 8, !tbaa !10
  call void @llvm.memset.p0.i64(ptr align 1 %10, i8 0, i64 64, i1 false)
  %71 = getelementptr inbounds [64 x i8], ptr %10, i64 0, i64 0
  %72 = load i32, ptr %7, align 4, !tbaa !21
  %73 = call ptr @av_make_error_string(ptr noundef %71, i64 noundef 64, i32 noundef %72)
  call void (ptr, i32, ptr, ...) @av_log(ptr noundef %70, i32 noundef 16, ptr noundef @.str.21, ptr noundef %73)
  %74 = load i32, ptr %8, align 4, !tbaa !21
  store i32 %74, ptr %7, align 4, !tbaa !21
  br label %75

75:                                               ; preds = %69, %67
  br label %133

76:                                               ; preds = %45
  %77 = load i32, ptr %9, align 4, !tbaa !21
  %78 = icmp ne i32 %77, 0
  br i1 %78, label %81, label %79

79:                                               ; preds = %76
  %80 = load ptr, ptr %3, align 8, !tbaa !41
  call void @enc_thread_set_name(ptr noundef %80)
  store i32 1, ptr %9, align 4, !tbaa !21
  br label %81

81:                                               ; preds = %79, %76
  %82 = load ptr, ptr %3, align 8, !tbaa !41
  %83 = getelementptr inbounds nuw %struct.EncoderThread, ptr %6, i32 0, i32 0
  %84 = load ptr, ptr %83, align 8, !tbaa !213
  %85 = getelementptr inbounds nuw %struct.EncoderThread, ptr %6, i32 0, i32 1
  %86 = load ptr, ptr %85, align 8, !tbaa !215
  %87 = call i32 @frame_encode(ptr noundef %82, ptr noundef %84, ptr noundef %86)
  store i32 %87, ptr %7, align 4, !tbaa !21
  %88 = getelementptr inbounds nuw %struct.EncoderThread, ptr %6, i32 0, i32 1
  %89 = load ptr, ptr %88, align 8, !tbaa !215
  call void @av_packet_unref(ptr noundef %89)
  %90 = getelementptr inbounds nuw %struct.EncoderThread, ptr %6, i32 0, i32 0
  %91 = load ptr, ptr %90, align 8, !tbaa !213
  call void @av_frame_unref(ptr noundef %91)
  %92 = load i32, ptr %7, align 4, !tbaa !21
  %93 = icmp slt i32 %92, 0
  br i1 %93, label %94, label %105

94:                                               ; preds = %81
  %95 = load i32, ptr %7, align 4, !tbaa !21
  %96 = icmp eq i32 %95, -541478725
  br i1 %96, label %97, label %99

97:                                               ; preds = %94
  %98 = load ptr, ptr %4, align 8, !tbaa !10
  call void (ptr, i32, ptr, ...) @av_log(ptr noundef %98, i32 noundef 40, ptr noundef @.str.22)
  br label %104

99:                                               ; preds = %94
  %100 = load ptr, ptr %4, align 8, !tbaa !10
  call void @llvm.memset.p0.i64(ptr align 1 %11, i8 0, i64 64, i1 false)
  %101 = getelementptr inbounds [64 x i8], ptr %11, i64 0, i64 0
  %102 = load i32, ptr %7, align 4, !tbaa !21
  %103 = call ptr @av_make_error_string(ptr noundef %101, i64 noundef 64, i32 noundef %102)
  call void (ptr, i32, ptr, ...) @av_log(ptr noundef %100, i32 noundef 16, ptr noundef @.str.23, ptr noundef %103)
  br label %104

104:                                              ; preds = %99, %97
  br label %106

105:                                              ; preds = %81
  br label %41, !llvm.loop !216

106:                                              ; preds = %104, %66, %41
  %107 = load i32, ptr %7, align 4, !tbaa !21
  %108 = icmp eq i32 %107, 0
  br i1 %108, label %112, label %109

109:                                              ; preds = %106
  %110 = load i32, ptr %7, align 4, !tbaa !21
  %111 = icmp eq i32 %110, -541478725
  br i1 %111, label %112, label %128

112:                                              ; preds = %109, %106
  %113 = load ptr, ptr %3, align 8, !tbaa !41
  %114 = getelementptr inbounds nuw %struct.EncoderThread, ptr %6, i32 0, i32 1
  %115 = load ptr, ptr %114, align 8, !tbaa !215
  %116 = call i32 @frame_encode(ptr noundef %113, ptr noundef null, ptr noundef %115)
  store i32 %116, ptr %7, align 4, !tbaa !21
  %117 = load i32, ptr %7, align 4, !tbaa !21
  %118 = icmp slt i32 %117, 0
  br i1 %118, label %119, label %127

119:                                              ; preds = %112
  %120 = load i32, ptr %7, align 4, !tbaa !21
  %121 = icmp ne i32 %120, -541478725
  br i1 %121, label %122, label %127

122:                                              ; preds = %119
  %123 = load ptr, ptr %4, align 8, !tbaa !10
  call void @llvm.memset.p0.i64(ptr align 1 %12, i8 0, i64 64, i1 false)
  %124 = getelementptr inbounds [64 x i8], ptr %12, i64 0, i64 0
  %125 = load i32, ptr %7, align 4, !tbaa !21
  %126 = call ptr @av_make_error_string(ptr noundef %124, i64 noundef 64, i32 noundef %125)
  call void (ptr, i32, ptr, ...) @av_log(ptr noundef %123, i32 noundef 16, ptr noundef @.str.24, ptr noundef %126)
  br label %127

127:                                              ; preds = %122, %119, %112
  br label %128

128:                                              ; preds = %127, %109
  %129 = load i32, ptr %7, align 4, !tbaa !21
  %130 = icmp eq i32 %129, -541478725
  br i1 %130, label %131, label %132

131:                                              ; preds = %128
  store i32 0, ptr %7, align 4, !tbaa !21
  br label %132

132:                                              ; preds = %131, %128
  br label %133

133:                                              ; preds = %132, %75, %38, %22
  call void @enc_thread_uninit(ptr noundef %6)
  %134 = load i32, ptr %7, align 4, !tbaa !21
  call void @llvm.lifetime.end.p0(i64 4, ptr %9) #11
  call void @llvm.lifetime.end.p0(i64 4, ptr %8) #11
  call void @llvm.lifetime.end.p0(i64 4, ptr %7) #11
  call void @llvm.lifetime.end.p0(i64 16, ptr %6) #11
  call void @llvm.lifetime.end.p0(i64 8, ptr %5) #11
  call void @llvm.lifetime.end.p0(i64 8, ptr %4) #11
  call void @llvm.lifetime.end.p0(i64 8, ptr %3) #11
  ret i32 %134
}