; Function Attrs: nounwind uwtable
define i32 @encoder_thread(ptr noundef %0) local_unnamed_addr #0 {
  %2 = alloca [16 x i8], align 16
  %3 = alloca %struct.EncoderThread, align 8
  %4 = alloca [64 x i8], align 1
  %5 = alloca [64 x i8], align 1
  %6 = alloca [64 x i8], align 1
  %7 = getelementptr inbounds nuw i8, ptr %0, i64 48
  %8 = load ptr, ptr %7, align 8, !tbaa !46
  call void @llvm.lifetime.start.p0(i64 16, ptr nonnull %3) #15
  %9 = getelementptr inbounds nuw i8, ptr %3, i64 8
  store i64 0, ptr %9, align 8
  %10 = tail call ptr @av_frame_alloc() #15
  store ptr %10, ptr %3, align 8, !tbaa !178
  %.not.i = icmp eq ptr %10, null
  br i1 %.not.i, label %enc_thread_init.exit.thread, label %11

11:                                               ; preds = %1
  %12 = tail call ptr @av_packet_alloc() #15
  %13 = getelementptr inbounds nuw i8, ptr %3, i64 8
  store ptr %12, ptr %13, align 8, !tbaa !182
  %.not6.i = icmp eq ptr %12, null
  br i1 %.not6.i, label %enc_thread_init.exit.thread, label %enc_thread_init.exit

enc_thread_init.exit.thread:                      ; preds = %1, %11
  %14 = getelementptr inbounds nuw i8, ptr %3, i64 8
  call void @av_packet_free(ptr noundef nonnull %14) #15
  call void @av_frame_free(ptr noundef nonnull %3) #15
  call void @llvm.memset.p0.i64(ptr noundef nonnull align 8 dereferenceable(16) %3, i8 0, i64 16, i1 false)
  br label %74

enc_thread_init.exit:                             ; preds = %11
  %15 = getelementptr inbounds nuw i8, ptr %0, i64 8
  %16 = load i32, ptr %15, align 8, !tbaa !88
  %switch = icmp ult i32 %16, 2
  br i1 %switch, label %20, label %17

17:                                               ; preds = %enc_thread_init.exit
  %18 = tail call i32 @enc_open(ptr noundef nonnull %0, ptr noundef null)
  %19 = icmp slt i32 %18, 0
  br i1 %19, label %74, label %20

20:                                               ; preds = %enc_thread_init.exit, %17
  %.140 = phi i32 [ %18, %17 ], [ 0, %enc_thread_init.exit ]
  %21 = getelementptr inbounds nuw i8, ptr %8, i64 96
  %22 = getelementptr inbounds nuw i8, ptr %8, i64 104
  %23 = getelementptr inbounds nuw i8, ptr %0, i64 16
  %24 = getelementptr inbounds nuw i8, ptr %0, i64 24
  br label %25

25:                                               ; preds = %54, %20
  %.2 = phi i32 [ %.140, %20 ], [ 0, %54 ]
  %.038 = phi i32 [ 0, %20 ], [ %30, %54 ]
  %.not53 = phi i1 [ true, %20 ], [ false, %54 ]
  %.not52 = icmp eq i32 %.038, 0
  br i1 %.not52, label %26, label %.loopexit

26:                                               ; preds = %25
  %27 = load ptr, ptr %21, align 8, !tbaa !21
  %28 = load i32, ptr %22, align 8, !tbaa !22
  %29 = load ptr, ptr %3, align 8, !tbaa !178
  %30 = call i32 @sch_enc_receive(ptr noundef %27, i32 noundef %28, ptr noundef %29) #15
  %31 = icmp slt i32 %30, 0
  br i1 %31, label %32, label %40

32:                                               ; preds = %26
  %33 = icmp eq i32 %30, -541478725
  br i1 %33, label %34, label %38

34:                                               ; preds = %32
  call void (ptr, i32, ptr, ...) @av_log(ptr noundef nonnull %8, i32 noundef 40, ptr noundef nonnull @.str.19) #15
  %35 = getelementptr inbounds nuw i8, ptr %8, i64 88
  %36 = load i32, ptr %35, align 8, !tbaa !62
  %.not54 = icmp eq i32 %36, 0
  br i1 %.not54, label %37, label %.loopexit

37:                                               ; preds = %34
  call void (ptr, i32, ptr, ...) @av_log(ptr noundef nonnull %8, i32 noundef 16, ptr noundef nonnull @.str.20) #15
  br label %74

38:                                               ; preds = %32
  call void @llvm.memset.p0.i64(ptr noundef nonnull align 1 dereferenceable(64) %4, i8 0, i64 64, i1 false)
  %39 = call i32 @av_strerror(i32 noundef %.2, ptr noundef nonnull %4, i64 noundef 64) #15
  call void (ptr, i32, ptr, ...) @av_log(ptr noundef nonnull %8, i32 noundef 16, ptr noundef nonnull @.str.21, ptr noundef nonnull %4) #15
  br label %74

40:                                               ; preds = %26
  br i1 %.not53, label %41, label %54

41:                                               ; preds = %40
  call void @llvm.lifetime.start.p0(i64 16, ptr nonnull %2) #15
  %42 = load ptr, ptr %23, align 8, !tbaa !61
  %43 = getelementptr inbounds nuw i8, ptr %42, i64 8
  %44 = load i32, ptr %43, align 8, !tbaa !165
  %45 = load i32, ptr %24, align 8, !tbaa !168
  %46 = load ptr, ptr %7, align 8, !tbaa !46
  %47 = getelementptr inbounds nuw i8, ptr %46, i64 8
  %48 = load ptr, ptr %47, align 8, !tbaa !9
  %49 = getelementptr inbounds nuw i8, ptr %48, i64 16
  %50 = load ptr, ptr %49, align 8, !tbaa !47
  %51 = load ptr, ptr %50, align 8, !tbaa !23
  %52 = call i32 (ptr, i64, ptr, ...) @snprintf(ptr noundef nonnull dereferenceable(1) %2, i64 noundef 16, ptr noundef nonnull @.str.29, i32 noundef %44, i32 noundef %45, ptr noundef %51) #15
  %53 = call i32 (i32, ...) @prctl(i32 noundef 15, ptr noundef nonnull %2) #15
  call void @llvm.lifetime.end.p0(i64 16, ptr nonnull %2) #15
  br label %54

54:                                               ; preds = %41, %40
  %55 = load ptr, ptr %3, align 8, !tbaa !178
  %56 = load ptr, ptr %13, align 8, !tbaa !182
  %57 = call fastcc i32 @frame_encode(ptr noundef %0, ptr noundef %55, ptr noundef %56)
  %58 = load ptr, ptr %13, align 8, !tbaa !182
  call void @av_packet_unref(ptr noundef %58) #15
  %59 = load ptr, ptr %3, align 8, !tbaa !178
  call void @av_frame_unref(ptr noundef %59) #15
  %60 = icmp slt i32 %57, 0
  br i1 %60, label %61, label %25, !llvm.loop !183

61:                                               ; preds = %54
  %62 = icmp eq i32 %57, -541478725
  br i1 %62, label %.thread, label %63

.thread:                                          ; preds = %61
  call void (ptr, i32, ptr, ...) @av_log(ptr noundef nonnull %8, i32 noundef 40, ptr noundef nonnull @.str.22) #15
  br label %65

63:                                               ; preds = %61
  call void @llvm.memset.p0.i64(ptr noundef nonnull align 1 dereferenceable(64) %5, i8 0, i64 64, i1 false)
  %64 = call i32 @av_strerror(i32 noundef %57, ptr noundef nonnull %5, i64 noundef 64) #15
  call void (ptr, i32, ptr, ...) @av_log(ptr noundef nonnull %8, i32 noundef 16, ptr noundef nonnull @.str.23, ptr noundef nonnull %5) #15
  br label %.loopexit

.loopexit:                                        ; preds = %25, %63, %34
  %.3 = phi i32 [ %.2, %34 ], [ %57, %63 ], [ %.2, %25 ]
  switch i32 %.3, label %72 [
    i32 -541478725, label %65
    i32 0, label %65
  ]

65:                                               ; preds = %.thread, %.loopexit, %.loopexit
  %66 = load ptr, ptr %13, align 8, !tbaa !182
  %67 = call fastcc i32 @frame_encode(ptr noundef %0, ptr noundef null, ptr noundef %66)
  %68 = icmp slt i32 %67, 0
  %69 = icmp ne i32 %67, -541478725
  %or.cond3 = and i1 %68, %69
  br i1 %or.cond3, label %70, label %72

70:                                               ; preds = %65
  call void @llvm.memset.p0.i64(ptr noundef nonnull align 1 dereferenceable(64) %6, i8 0, i64 64, i1 false)
  %71 = call i32 @av_strerror(i32 noundef %67, ptr noundef nonnull %6, i64 noundef 64) #15
  call void (ptr, i32, ptr, ...) @av_log(ptr noundef %8, i32 noundef 16, ptr noundef nonnull @.str.24, ptr noundef nonnull %6) #15
  br label %72

72:                                               ; preds = %.loopexit, %65, %70
  %.4 = phi i32 [ %67, %70 ], [ %67, %65 ], [ %.3, %.loopexit ]
  %73 = icmp eq i32 %.4, -541478725
  %spec.store.select = select i1 %73, i32 0, i32 %.4
  br label %74

74:                                               ; preds = %enc_thread_init.exit.thread, %37, %38, %17, %72
  %.039 = phi i32 [ %18, %17 ], [ %spec.store.select, %72 ], [ -22, %37 ], [ %30, %38 ], [ -12, %enc_thread_init.exit.thread ]
  %75 = getelementptr inbounds nuw i8, ptr %3, i64 8
  call void @av_packet_free(ptr noundef nonnull %75) #15
  call void @av_frame_free(ptr noundef nonnull %3) #15
  call void @llvm.lifetime.end.p0(i64 16, ptr nonnull %3) #15
  ret i32 %.039
}